; Function Attrs: mustprogress uwtable
define internal noundef range(i32 0, 2) i32 @_ZN11flatbuffers12_GLOBAL__N_115GoCodeGenerator12GenerateCodeERKNS_6ParserERKNSt7__cxx1112basic_stringIcSt11char_traitsIcESaIcEEESC_(ptr nonnull readnone align 8 captures(none) %0, ptr noundef nonnull align 8 dereferenceable(1920) %1, ptr noundef nonnull align 8 dereferenceable(32) %2, ptr noundef nonnull align 8 dereferenceable(32) %3) unnamed_addr #0 align 2 personality ptr @__gxx_personality_v0 {
  %5 = alloca %"class.flatbuffers::go::GoGenerator", align 8
  call void @llvm.lifetime.start.p0(i64 616, ptr nonnull %5) #25
  %6 = getelementptr inbounds nuw i8, ptr %1, i64 1288
  call void @_ZN11flatbuffers2go11GoGeneratorC2ERKNS_6ParserERKNSt7__cxx1112basic_stringIcSt11char_traitsIcESaIcEEESC_SC_(ptr noundef nonnull align 8 dereferenceable(610) %5, ptr noundef nonnull align 8 dereferenceable(1920) %1, ptr noundef nonnull align 8 dereferenceable(32) %2, ptr noundef nonnull align 8 dereferenceable(32) %3, ptr noundef nonnull align 8 dereferenceable(32) %6)
  %7 = invoke noundef zeroext i1 @_ZN11flatbuffers2go11GoGenerator8generateEv(ptr noundef nonnull align 8 dereferenceable(610) %5)
          to label %_ZN11flatbuffersL10GenerateGoERKNS_6ParserERKNSt7__cxx1112basic_stringIcSt11char_traitsIcESaIcEEESA_.exit unwind label %8

8:                                                ; preds = %4
  %9 = landingpad { ptr, i32 }
          cleanup
  call void @_ZN11flatbuffers2go11GoGeneratorD2Ev(ptr noundef nonnull align 8 dereferenceable(610) %5) #25
  call void @llvm.lifetime.end.p0(i64 616, ptr nonnull %5) #25
  resume { ptr, i32 } %9

_ZN11flatbuffersL10GenerateGoERKNS_6ParserERKNSt7__cxx1112basic_stringIcSt11char_traitsIcESaIcEEESA_.exit: ; preds = %4
  call void @_ZN11flatbuffers2go11GoGeneratorD2Ev(ptr noundef nonnull align 8 dereferenceable(610) %5) #25
  call void @llvm.lifetime.end.p0(i64 616, ptr nonnull %5) #25
  %not. = xor i1 %7, true
  %. = zext i1 %not. to i32
  ret i32 %.
}